target datalayout = "e-m:e-p270:32:32-p271:32:32-p272:64:64-i64:64-i128:128-f80:128-n8:16:32:64-S128"
target triple = "x86_64-pc-linux-gnu"

%struct.AVFormatContext = type { ptr, ptr, ptr, ptr, ptr, i32, i32, ptr, i32, ptr, i32, ptr, ptr, i64, i64, i64, i32, i32, i32, i64, i64, ptr, i32, i32, ptr, i32, i32, i32, i32, ptr, i64, i32, i32, %struct.AVIOInterruptCB, i32, i32, i32, i32, i64, i32, i32, i32, i32, i32, i32, i32, i32, i32, i32, i32, i32, i64, i32, i32, i32, i32, i32, ptr, ptr, ptr, ptr, i32, ptr, ptr, ptr, ptr, i32, ptr, ptr, i64, ptr, ptr, ptr, i64 }
%struct.AVIOInterruptCB = type { ptr, ptr }
%struct.AVStream = type { ptr, i32, i32, ptr, ptr, %struct.AVRational, i64, i64, i64, i32, i32, %struct.AVRational, ptr, %struct.AVRational, %struct.AVPacket, i32, %struct.AVRational, i32 }
%struct.AVPacket = type { ptr, i64, i64, ptr, i32, i32, i32, ptr, i32, i64, i64, ptr, ptr, %struct.AVRational }
%struct.AVRational = type { i32, i32 }
%struct.AVCodecParameters = type { i32, i32, i32, ptr, i32, ptr, i32, i32, i64, i32, i32, i32, i32, i32, i32, %struct.AVRational, %struct.AVRational, i32, i32, i32, i32, i32, i32, i32, %struct.AVChannelLayout, i32, i32, i32, i32, i32, i32 }
%struct.AVChannelLayout = type { i32, i32, %union.anon, ptr }
%union.anon = type { i64 }

; Function Attrs: nounwind uwtable
define internal i32 @ace_read_header(ptr noundef %0) #0 {
  %2 = alloca i32, align 4
  %3 = alloca ptr, align 8
  %4 = alloca ptr, align 8
  %5 = alloca ptr, align 8
  %6 = alloca i32, align 4
  %7 = alloca i32, align 4
  %8 = alloca i32, align 4
  %9 = alloca i32, align 4
  %10 = alloca i32, align 4
  %11 = alloca i32, align 4
  %12 = alloca ptr, align 8
  %13 = alloca i32, align 4
  store ptr %0, ptr %3, align 8, !tbaa !16
  call void @llvm.lifetime.start.p0(i64 8, ptr %4) #4
  %14 = load ptr, ptr %3, align 8, !tbaa !16
  %15 = getelementptr inbounds nuw %struct.AVFormatContext, ptr %14, i32 0, i32 4
  %16 = load ptr, ptr %15, align 8, !tbaa !18
  store ptr %16, ptr %4, align 8, !tbaa !33
  call void @llvm.lifetime.start.p0(i64 8, ptr %5) #4
  call void @llvm.lifetime.start.p0(i64 4, ptr %6) #4
  call void @llvm.lifetime.start.p0(i64 4, ptr %7) #4
  call void @llvm.lifetime.start.p0(i64 4, ptr %8) #4
  call void @llvm.lifetime.start.p0(i64 4, ptr %9) #4
  call void @llvm.lifetime.start.p0(i64 4, ptr %10) #4
  call void @llvm.lifetime.start.p0(i64 4, ptr %11) #4
  call void @llvm.lifetime.start.p0(i64 8, ptr %12) #4
  %17 = load ptr, ptr %4, align 8, !tbaa !33
  %18 = call i64 @avio_skip(ptr noundef %17, i64 noundef 64)
  %19 = load ptr, ptr %4, align 8, !tbaa !33
  %20 = call i32 @avio_rb32(ptr noundef %19)
  store i32 %20, ptr %10, align 4, !tbaa !15
  %21 = load i32, ptr %10, align 4, !tbaa !15
  %22 = icmp ult i32 %21, 68
  br i1 %22, label %23, label %24

23:                                               ; preds = %1
  store i32 -1094995529, ptr %2, align 4
  store i32 1, ptr %13, align 4
  br label %169

24:                                               ; preds = %1
  %25 = load ptr, ptr %4, align 8, !tbaa !33
  %26 = load i32, ptr %10, align 4, !tbaa !15
  %27 = sub i32 %26, 68
  %28 = zext i32 %27 to i64
  %29 = call i64 @avio_skip(ptr noundef %25, i64 noundef %28)
  %30 = load ptr, ptr %4, align 8, !tbaa !33
  %31 = call i32 @avio_rb32(ptr noundef %30)
  %32 = icmp ne i32 %31, 1095975712
  br i1 %32, label %33, label %34

33:                                               ; preds = %24
  store i32 -1094995529, ptr %2, align 4
  store i32 1, ptr %13, align 4
  br label %169

34:                                               ; preds = %24
  %35 = load ptr, ptr %4, align 8, !tbaa !33
  %36 = call i64 @avio_skip(ptr noundef %35, i64 noundef 236)
  %37 = load ptr, ptr %4, align 8, !tbaa !33
  %38 = call i32 @avio_rb32(ptr noundef %37)
  store i32 %38, ptr %7, align 4, !tbaa !15
  %39 = load ptr, ptr %4, align 8, !tbaa !33
  %40 = call i32 @avio_rb32(ptr noundef %39)
  store i32 %40, ptr %9, align 4, !tbaa !15
  %41 = load i32, ptr %9, align 4, !tbaa !15
  %42 = icmp sle i32 %41, 0
  br i1 %42, label %46, label %43

43:                                               ; preds = %34
  %44 = load i32, ptr %9, align 4, !tbaa !15
  %45 = icmp sgt i32 %44, 8
  br i1 %45, label %46, label %47

46:                                               ; preds = %43, %34
  store i32 -1094995529, ptr %2, align 4
  store i32 1, ptr %13, align 4
  br label %169

47:                                               ; preds = %43
  %48 = load ptr, ptr %4, align 8, !tbaa !33
  %49 = call i32 @avio_rb32(ptr noundef %48)
  store i32 %49, ptr %11, align 4, !tbaa !15
  %50 = load i32, ptr %11, align 4, !tbaa !15
  %51 = icmp eq i32 %50, 0
  br i1 %51, label %52, label %53

52:                                               ; preds = %47
  store i32 -1094995529, ptr %2, align 4
  store i32 1, ptr %13, align 4
  br label %169

53:                                               ; preds = %47
  %54 = load ptr, ptr %4, align 8, !tbaa !33
  %55 = call i32 @avio_rb32(ptr noundef %54)
  store i32 %55, ptr %8, align 4, !tbaa !15
  %56 = load i32, ptr %8, align 4, !tbaa !15
  %57 = icmp sle i32 %56, 0
  br i1 %57, label %58, label %59

58:                                               ; preds = %53
  store i32 -1094995529, ptr %2, align 4
  store i32 1, ptr %13, align 4
  br label %169

59:                                               ; preds = %53
  %60 = load ptr, ptr %4, align 8, !tbaa !33
  %61 = call i64 @avio_skip(ptr noundef %60, i64 noundef 16)
  %62 = load ptr, ptr %3, align 8, !tbaa !16
  %63 = call ptr @avformat_new_stream(ptr noundef %62, ptr noundef null)
  store ptr %63, ptr %12, align 8, !tbaa !34
  %64 = load ptr, ptr %12, align 8, !tbaa !34
  %65 = icmp ne ptr %64, null
  br i1 %65, label %67, label %66

66:                                               ; preds = %59
  store i32 -12, ptr %2, align 4
  store i32 1, ptr %13, align 4
  br label %169

67:                                               ; preds = %59
  %68 = load ptr, ptr %12, align 8, !tbaa !34
  %69 = getelementptr inbounds nuw %struct.AVStream, ptr %68, i32 0, i32 6
  store i64 0, ptr %69, align 8, !tbaa !36
  %70 = load ptr, ptr %12, align 8, !tbaa !34
  %71 = getelementptr inbounds nuw %struct.AVStream, ptr %70, i32 0, i32 3
  %72 = load ptr, ptr %71, align 8, !tbaa !43
  store ptr %72, ptr %5, align 8, !tbaa !44
  %73 = load ptr, ptr %5, align 8, !tbaa !44
  %74 = getelementptr inbounds nuw %struct.AVCodecParameters, ptr %73, i32 0, i32 0
  store i32 1, ptr %74, align 8, !tbaa !45
  %75 = load i32, ptr %9, align 4, !tbaa !15
  %76 = load ptr, ptr %5, align 8, !tbaa !44
  %77 = getelementptr inbounds nuw %struct.AVCodecParameters, ptr %76, i32 0, i32 24
  %78 = getelementptr inbounds nuw %struct.AVChannelLayout, ptr %77, i32 0, i32 1
  store i32 %75, ptr %78, align 4, !tbaa !48
  %79 = load i32, ptr %8, align 4, !tbaa !15
  %80 = load ptr, ptr %5, align 8, !tbaa !44
  %81 = getelementptr inbounds nuw %struct.AVCodecParameters, ptr %80, i32 0, i32 25
  store i32 %79, ptr %81, align 8, !tbaa !49
  %82 = load i32, ptr %7, align 4, !tbaa !15
  %83 = icmp eq i32 %82, 4
  br i1 %83, label %84, label %85

84:                                               ; preds = %67
  br label %89

85:                                               ; preds = %67
  %86 = load i32, ptr %7, align 4, !tbaa !15
  %87 = icmp eq i32 %86, 5
  %88 = select i1 %87, i32 152, i32 192
  br label %89

89:                                               ; preds = %85, %84
  %90 = phi i32 [ 96, %84 ], [ %88, %85 ]
  %91 = load i32, ptr %9, align 4, !tbaa !15
  %92 = mul nsw i32 %90, %91
  %93 = load ptr, ptr %5, align 8, !tbaa !44
  %94 = getelementptr inbounds nuw %struct.AVCodecParameters, ptr %93, i32 0, i32 26
  store i32 %92, ptr %94, align 4, !tbaa !50
  %95 = load i32, ptr %11, align 4, !tbaa !15
  %96 = load ptr, ptr %5, align 8, !tbaa !44
  %97 = getelementptr inbounds nuw %struct.AVCodecParameters, ptr %96, i32 0, i32 26
  %98 = load i32, ptr %97, align 4, !tbaa !50
  %99 = udiv i32 %95, %98
  %100 = zext i32 %99 to i64
  %101 = mul nsw i64 %100, 1024
  %102 = load ptr, ptr %12, align 8, !tbaa !34
  %103 = getelementptr inbounds nuw %struct.AVStream, ptr %102, i32 0, i32 7
  store i64 %101, ptr %103, align 8, !tbaa !51
  %104 = load ptr, ptr %5, align 8, !tbaa !44
  %105 = getelementptr inbounds nuw %struct.AVCodecParameters, ptr %104, i32 0, i32 1
  store i32 86047, ptr %105, align 4, !tbaa !52
  %106 = load ptr, ptr %5, align 8, !tbaa !44
  %107 = call i32 @ff_alloc_extradata(ptr noundef %106, i32 noundef 14)
  store i32 %107, ptr %6, align 4, !tbaa !15
  %108 = load i32, ptr %6, align 4, !tbaa !15
  %109 = icmp slt i32 %108, 0
  br i1 %109, label %110, label %112

110:                                              ; preds = %89
  %111 = load i32, ptr %6, align 4, !tbaa !15
  store i32 %111, ptr %2, align 4
  store i32 1, ptr %13, align 4
  br label %169

112:                                              ; preds = %89
  %113 = load ptr, ptr %12, align 8, !tbaa !34
  %114 = getelementptr inbounds nuw %struct.AVStream, ptr %113, i32 0, i32 3
  %115 = load ptr, ptr %114, align 8, !tbaa !43
  %116 = getelementptr inbounds nuw %struct.AVCodecParameters, ptr %115, i32 0, i32 3
  %117 = load ptr, ptr %116, align 8, !tbaa !53
  store i16 1, ptr %117, align 1, !tbaa !13
  %118 = load i32, ptr %9, align 4, !tbaa !15
  %119 = mul nsw i32 2048, %118
  %120 = trunc i32 %119 to i16
  %121 = load ptr, ptr %12, align 8, !tbaa !34
  %122 = getelementptr inbounds nuw %struct.AVStream, ptr %121, i32 0, i32 3
  %123 = load ptr, ptr %122, align 8, !tbaa !43
  %124 = getelementptr inbounds nuw %struct.AVCodecParameters, ptr %123, i32 0, i32 3
  %125 = load ptr, ptr %124, align 8, !tbaa !53
  %126 = getelementptr inbounds i8, ptr %125, i64 2
  store i16 %120, ptr %126, align 1, !tbaa !13
  %127 = load ptr, ptr %12, align 8, !tbaa !34
  %128 = getelementptr inbounds nuw %struct.AVStream, ptr %127, i32 0, i32 3
  %129 = load ptr, ptr %128, align 8, !tbaa !43
  %130 = getelementptr inbounds nuw %struct.AVCodecParameters, ptr %129, i32 0, i32 3
  %131 = load ptr, ptr %130, align 8, !tbaa !53
  %132 = getelementptr inbounds i8, ptr %131, i64 4
  store i16 0, ptr %132, align 1, !tbaa !13
  %133 = load i32, ptr %7, align 4, !tbaa !15
  %134 = icmp eq i32 %133, 4
  %135 = select i1 %134, i32 1, i32 0
  %136 = trunc i32 %135 to i16
  %137 = load ptr, ptr %12, align 8, !tbaa !34
  %138 = getelementptr inbounds nuw %struct.AVStream, ptr %137, i32 0, i32 3
  %139 = load ptr, ptr %138, align 8, !tbaa !43
  %140 = getelementptr inbounds nuw %struct.AVCodecParameters, ptr %139, i32 0, i32 3
  %141 = load ptr, ptr %140, align 8, !tbaa !53
  %142 = getelementptr inbounds i8, ptr %141, i64 6
  store i16 %136, ptr %142, align 1, !tbaa !13
  %143 = load i32, ptr %7, align 4, !tbaa !15
  %144 = icmp eq i32 %143, 4
  %145 = select i1 %144, i32 1, i32 0
  %146 = trunc i32 %145 to i16
  %147 = load ptr, ptr %12, align 8, !tbaa !34
  %148 = getelementptr inbounds nuw %struct.AVStream, ptr %147, i32 0, i32 3
  %149 = load ptr, ptr %148, align 8, !tbaa !43
  %150 = getelementptr inbounds nuw %struct.AVCodecParameters, ptr %149, i32 0, i32 3
  %151 = load ptr, ptr %150, align 8, !tbaa !53
  %152 = getelementptr inbounds i8, ptr %151, i64 8
  store i16 %146, ptr %152, align 1, !tbaa !13
  %153 = load ptr, ptr %12, align 8, !tbaa !34
  %154 = getelementptr inbounds nuw %struct.AVStream, ptr %153, i32 0, i32 3
  %155 = load ptr, ptr %154, align 8, !tbaa !43
  %156 = getelementptr inbounds nuw %struct.AVCodecParameters, ptr %155, i32 0, i32 3
  %157 = load ptr, ptr %156, align 8, !tbaa !53
  %158 = getelementptr inbounds i8, ptr %157, i64 10
  store i16 1, ptr %158, align 1, !tbaa !13
  %159 = load ptr, ptr %12, align 8, !tbaa !34
  %160 = getelementptr inbounds nuw %struct.AVStream, ptr %159, i32 0, i32 3
  %161 = load ptr, ptr %160, align 8, !tbaa !43
  %162 = getelementptr inbounds nuw %struct.AVCodecParameters, ptr %161, i32 0, i32 3
  %163 = load ptr, ptr %162, align 8, !tbaa !53
  %164 = getelementptr inbounds i8, ptr %163, i64 12
  store i16 0, ptr %164, align 1, !tbaa !13
  %165 = load ptr, ptr %12, align 8, !tbaa !34
  %166 = load ptr, ptr %5, align 8, !tbaa !44
  %167 = getelementptr inbounds nuw %struct.AVCodecParameters, ptr %166, i32 0, i32 25
  %168 = load i32, ptr %167, align 8, !tbaa !49
  call void @avpriv_set_pts_info(ptr noundef %165, i32 noundef 64, i32 noundef 1, i32 noundef %168)
  store i32 0, ptr %2, align 4
  store i32 1, ptr %13, align 4
  br label %169

169:                                              ; preds = %112, %110, %66, %58, %52, %46, %33, %23
  call void @llvm.lifetime.end.p0(i64 8, ptr %12) #4
  call void @llvm.lifetime.end.p0(i64 4, ptr %11) #4
  call void @llvm.lifetime.end.p0(i64 4, ptr %10) #4
  call void @llvm.lifetime.end.p0(i64 4, ptr %9) #4
  call void @llvm.lifetime.end.p0(i64 4, ptr %8) #4
  call void @llvm.lifetime.end.p0(i64 4, ptr %7) #4
  call void @llvm.lifetime.end.p0(i64 4, ptr %6) #4
  call void @llvm.lifetime.end.p0(i64 8, ptr %5) #4
  call void @llvm.lifetime.end.p0(i64 8, ptr %4) #4
  %170 = load i32, ptr %2, align 4
  ret i32 %170
}