; Function Attrs: nounwind uwtable
define internal range(i32 -2147483648, 1) i32 @ace_read_header(ptr noundef %0) #1 {
  %2 = getelementptr inbounds nuw i8, ptr %0, i64 32
  %3 = load ptr, ptr %2, align 8, !tbaa !13
  %4 = tail call i64 @avio_skip(ptr noundef %3, i64 noundef 64) #4
  %5 = tail call i32 @avio_rb32(ptr noundef %3) #4
  %6 = icmp ult i32 %5, 68
  br i1 %6, label %76, label %7

7:                                                ; preds = %1
  %8 = add i32 %5, -68
  %9 = zext i32 %8 to i64
  %10 = tail call i64 @avio_skip(ptr noundef %3, i64 noundef %9) #4
  %11 = tail call i32 @avio_rb32(ptr noundef %3) #4
  %.not = icmp eq i32 %11, 1095975712
  br i1 %.not, label %12, label %76

12:                                               ; preds = %7
  %13 = tail call i64 @avio_skip(ptr noundef %3, i64 noundef 236) #4
  %14 = tail call i32 @avio_rb32(ptr noundef %3) #4
  %15 = tail call i32 @avio_rb32(ptr noundef %3) #4
  %16 = add i32 %15, -9
  %or.cond = icmp ult i32 %16, -8
  br i1 %or.cond, label %76, label %17

17:                                               ; preds = %12
  %18 = tail call i32 @avio_rb32(ptr noundef %3) #4
  %19 = icmp eq i32 %18, 0
  br i1 %19, label %76, label %20

20:                                               ; preds = %17
  %21 = tail call i32 @avio_rb32(ptr noundef %3) #4
  %22 = icmp slt i32 %21, 1
  br i1 %22, label %76, label %23

23:                                               ; preds = %20
  %24 = tail call i64 @avio_skip(ptr noundef %3, i64 noundef 16) #4
  %25 = tail call ptr @avformat_new_stream(ptr noundef nonnull %0, ptr noundef null) #4
  %.not56 = icmp eq ptr %25, null
  br i1 %.not56, label %76, label %26

26:                                               ; preds = %23
  %27 = getelementptr inbounds nuw i8, ptr %25, i64 40
  store i64 0, ptr %27, align 8, !tbaa !28
  %28 = getelementptr inbounds nuw i8, ptr %25, i64 16
  %29 = load ptr, ptr %28, align 8, !tbaa !35
  store i32 1, ptr %29, align 8, !tbaa !36
  %30 = getelementptr inbounds nuw i8, ptr %29, i64 132
  store i32 %15, ptr %30, align 4, !tbaa !39
  %31 = getelementptr inbounds nuw i8, ptr %29, i64 152
  store i32 %21, ptr %31, align 8, !tbaa !40
  %32 = icmp eq i32 %14, 4
  %33 = icmp eq i32 %14, 5
  %34 = select i1 %33, i32 152, i32 192
  %35 = select i1 %32, i32 96, i32 %34
  %36 = mul nuw nsw i32 %35, %15
  %37 = getelementptr inbounds nuw i8, ptr %29, i64 156
  store i32 %36, ptr %37, align 4, !tbaa !41
  %38 = udiv i32 %18, %36
  %39 = zext nneg i32 %38 to i64
  %40 = shl nuw nsw i64 %39, 10
  %41 = getelementptr inbounds nuw i8, ptr %25, i64 48
  store i64 %40, ptr %41, align 8, !tbaa !42
  %42 = getelementptr inbounds nuw i8, ptr %29, i64 4
  store i32 86047, ptr %42, align 4, !tbaa !43
  %43 = tail call i32 @ff_alloc_extradata(ptr noundef nonnull %29, i32 noundef 14) #4
  %44 = icmp slt i32 %43, 0
  br i1 %44, label %76, label %45

45:                                               ; preds = %26
  %46 = load ptr, ptr %28, align 8, !tbaa !35
  %47 = getelementptr inbounds nuw i8, ptr %46, i64 16
  %48 = load ptr, ptr %47, align 8, !tbaa !44
  store i16 1, ptr %48, align 1, !tbaa !11
  %.tr = trunc nuw nsw i32 %15 to i16
  %49 = shl nuw nsw i16 %.tr, 11
  %50 = load ptr, ptr %28, align 8, !tbaa !35
  %51 = getelementptr inbounds nuw i8, ptr %50, i64 16
  %52 = load ptr, ptr %51, align 8, !tbaa !44
  %53 = getelementptr inbounds nuw i8, ptr %52, i64 2
  store i16 %49, ptr %53, align 1, !tbaa !11
  %54 = load ptr, ptr %28, align 8, !tbaa !35
  %55 = getelementptr inbounds nuw i8, ptr %54, i64 16
  %56 = load ptr, ptr %55, align 8, !tbaa !44
  %57 = getelementptr inbounds nuw i8, ptr %56, i64 4
  store i16 0, ptr %57, align 1, !tbaa !11
  %58 = zext i1 %32 to i16
  %59 = load ptr, ptr %28, align 8, !tbaa !35
  %60 = getelementptr inbounds nuw i8, ptr %59, i64 16
  %61 = load ptr, ptr %60, align 8, !tbaa !44
  %62 = getelementptr inbounds nuw i8, ptr %61, i64 6
  store i16 %58, ptr %62, align 1, !tbaa !11
  %63 = load ptr, ptr %28, align 8, !tbaa !35
  %64 = getelementptr inbounds nuw i8, ptr %63, i64 16
  %65 = load ptr, ptr %64, align 8, !tbaa !44
  %66 = getelementptr inbounds nuw i8, ptr %65, i64 8
  store i16 %58, ptr %66, align 1, !tbaa !11
  %67 = load ptr, ptr %28, align 8, !tbaa !35
  %68 = getelementptr inbounds nuw i8, ptr %67, i64 16
  %69 = load ptr, ptr %68, align 8, !tbaa !44
  %70 = getelementptr inbounds nuw i8, ptr %69, i64 10
  store i16 1, ptr %70, align 1, !tbaa !11
  %71 = load ptr, ptr %28, align 8, !tbaa !35
  %72 = getelementptr inbounds nuw i8, ptr %71, i64 16
  %73 = load ptr, ptr %72, align 8, !tbaa !44
  %74 = getelementptr inbounds nuw i8, ptr %73, i64 12
  store i16 0, ptr %74, align 1, !tbaa !11
  %75 = load i32, ptr %31, align 8, !tbaa !40
  tail call void @avpriv_set_pts_info(ptr noundef nonnull %25, i32 noundef 64, i32 noundef 1, i32 noundef %75) #4
  br label %76

76:                                               ; preds = %26, %23, %20, %17, %12, %7, %1, %45
  %.0 = phi i32 [ 0, %45 ], [ -1094995529, %1 ], [ -1094995529, %7 ], [ -1094995529, %12 ], [ -1094995529, %17 ], [ -1094995529, %20 ], [ -12, %23 ], [ %43, %26 ]
  ret i32 %.0
}